target datalayout = "e-m:e-p270:32:32-p271:32:32-p272:64:64-i64:64-i128:128-f80:128-n8:16:32:64-S128"
target triple = "x86_64-pc-linux-gnu"

%struct.Abc_EnuMan_t_ = type { i32, i32, i32, i32, i32, i32, i32, [16 x i32], [16 x i32], [16 x i32], [16 x i32], [16 x i32], [16 x i32], [16 x i32], [16 x i64], i64, i64, i64 }
%struct.timespec = type { i64, i64 }

@.str.96 = private unnamed_addr constant [5 x i8] c"Time\00", align 1
@.str.97 = private unnamed_addr constant [67 x i8] c"The gate count %d is not enough to have functions with %d inputs.\0A\00", align 1
@s_Truths6 = internal global [6 x i64] [i64 -6148914691236517206, i64 -3689348814741910324, i64 -1085102592571150096, i64 -71777214294589696, i64 -281470681808896, i64 -4294967296], align 16
@.str.98 = private unnamed_addr constant [67 x i8] c"Vars = %d.  Gates = %d.  Tries = %u. Builds = %u.  Finished = %d. \00", align 1
@.str.99 = private unnamed_addr constant [5 x i8] c"%s =\00", align 1
@.str.100 = private unnamed_addr constant [11 x i8] c"%9.2f sec\0A\00", align 1

; Function Attrs: inlinehint nounwind uwtable
define internal void @Abc_PrintTime(i32 noundef %0, ptr noundef %1, i64 noundef %2) #3 {
  %4 = alloca i32, align 4
  %5 = alloca ptr, align 8
  %6 = alloca i64, align 8
  store i32 %0, ptr %4, align 4, !tbaa !8
  store ptr %1, ptr %5, align 8, !tbaa !10
  store i64 %2, ptr %6, align 8, !tbaa !30
  %7 = load ptr, ptr %5, align 8, !tbaa !10
  call void (i32, ptr, ...) @Abc_Print(i32 noundef 1, ptr noundef @.str.99, ptr noundef %7)
  %8 = load i64, ptr %6, align 8, !tbaa !30
  %9 = sitofp i64 %8 to double
  %10 = fmul double 1.000000e+00, %9
  %11 = fdiv double %10, 1.000000e+06
  call void (i32, ptr, ...) @Abc_Print(i32 noundef 1, ptr noundef @.str.100, double noundef %11)
  ret void
}

; Function Attrs: inlinehint nounwind uwtable
define internal i64 @Abc_Clock() #3 {
  %1 = alloca i64, align 8
  %2 = alloca %struct.timespec, align 8
  %3 = alloca i32, align 4
  %4 = alloca i64, align 8
  call void @llvm.lifetime.start.p0(i64 16, ptr %2) #12
  %5 = call i32 @clock_gettime(i32 noundef 1, ptr noundef %2) #12
  %6 = icmp slt i32 %5, 0
  br i1 %6, label %7, label %8

7:                                                ; preds = %0
  store i64 -1, ptr %1, align 8
  store i32 1, ptr %3, align 4
  br label %19

8:                                                ; preds = %0
  call void @llvm.lifetime.start.p0(i64 8, ptr %4) #12
  %9 = getelementptr inbounds nuw %struct.timespec, ptr %2, i32 0, i32 0
  %10 = load i64, ptr %9, align 8, !tbaa !66
  %11 = mul nsw i64 %10, 1000000
  store i64 %11, ptr %4, align 8, !tbaa !30
  %12 = getelementptr inbounds nuw %struct.timespec, ptr %2, i32 0, i32 1
  %13 = load i64, ptr %12, align 8, !tbaa !68
  %14 = mul nsw i64 %13, 1000000
  %15 = sdiv i64 %14, 1000000000
  %16 = load i64, ptr %4, align 8, !tbaa !30
  %17 = add nsw i64 %16, %15
  store i64 %17, ptr %4, align 8, !tbaa !30
  %18 = load i64, ptr %4, align 8, !tbaa !30
  store i64 %18, ptr %1, align 8
  store i32 1, ptr %3, align 4
  call void @llvm.lifetime.end.p0(i64 8, ptr %4) #12
  br label %19

19:                                               ; preds = %8, %7
  call void @llvm.lifetime.end.p0(i64 16, ptr %2) #12
  %20 = load i64, ptr %1, align 8
  ret i64 %20
}

; Function Attrs: nounwind uwtable
define void @Abc_EnumerateFuncs(i32 noundef %0, i32 noundef %1, i32 noundef %2) #0 {
  %4 = alloca i32, align 4
  %5 = alloca i32, align 4
  %6 = alloca i32, align 4
  %7 = alloca i64, align 8
  %8 = alloca %struct.Abc_EnuMan_t_, align 8
  %9 = alloca ptr, align 8
  %10 = alloca i32, align 4
  %11 = alloca i32, align 4
  store i32 %0, ptr %4, align 4, !tbaa !8
  store i32 %1, ptr %5, align 4, !tbaa !8
  store i32 %2, ptr %6, align 4, !tbaa !8
  call void @llvm.lifetime.start.p0(i64 8, ptr %7) #12
  %12 = call i64 @Abc_Clock()
  store i64 %12, ptr %7, align 8, !tbaa !30
  call void @llvm.lifetime.start.p0(i64 632, ptr %8) #12
  call void @llvm.lifetime.start.p0(i64 8, ptr %9) #12
  store ptr %8, ptr %9, align 8, !tbaa !44
  call void @llvm.lifetime.start.p0(i64 4, ptr %10) #12
  %13 = load i32, ptr %4, align 4, !tbaa !8
  %14 = load i32, ptr %5, align 4, !tbaa !8
  %15 = add nsw i32 %14, 1
  %16 = icmp sgt i32 %13, %15
  br i1 %16, label %17, label %21

17:                                               ; preds = %3
  %18 = load i32, ptr %5, align 4, !tbaa !8
  %19 = load i32, ptr %4, align 4, !tbaa !8
  %20 = call i32 (ptr, ...) @printf(ptr noundef @.str.97, i32 noundef %18, i32 noundef %19)
  store i32 1, ptr %11, align 4
  br label %79

21:                                               ; preds = %3
  %22 = load ptr, ptr %9, align 8, !tbaa !44
  call void @llvm.memset.p0.i64(ptr align 8 %22, i8 0, i64 632, i1 false)
  %23 = load i32, ptr %6, align 4, !tbaa !8
  %24 = load ptr, ptr %9, align 8, !tbaa !44
  %25 = getelementptr inbounds nuw %struct.Abc_EnuMan_t_, ptr %24, i32 0, i32 2
  store i32 %23, ptr %25, align 8, !tbaa !49
  %26 = load ptr, ptr %9, align 8, !tbaa !44
  %27 = getelementptr inbounds nuw %struct.Abc_EnuMan_t_, ptr %26, i32 0, i32 3
  store i32 0, ptr %27, align 4, !tbaa !51
  %28 = load i32, ptr %4, align 4, !tbaa !8
  %29 = load ptr, ptr %9, align 8, !tbaa !44
  %30 = getelementptr inbounds nuw %struct.Abc_EnuMan_t_, ptr %29, i32 0, i32 0
  store i32 %28, ptr %30, align 8, !tbaa !58
  %31 = load i32, ptr %4, align 4, !tbaa !8
  %32 = load i32, ptr %5, align 4, !tbaa !8
  %33 = add nsw i32 %31, %32
  %34 = load ptr, ptr %9, align 8, !tbaa !44
  %35 = getelementptr inbounds nuw %struct.Abc_EnuMan_t_, ptr %34, i32 0, i32 4
  store i32 %33, ptr %35, align 8, !tbaa !48
  %36 = load i32, ptr %4, align 4, !tbaa !8
  %37 = load ptr, ptr %9, align 8, !tbaa !44
  %38 = getelementptr inbounds nuw %struct.Abc_EnuMan_t_, ptr %37, i32 0, i32 5
  store i32 %36, ptr %38, align 4, !tbaa !46
  %39 = load i32, ptr %4, align 4, !tbaa !8
  %40 = load ptr, ptr %9, align 8, !tbaa !44
  %41 = getelementptr inbounds nuw %struct.Abc_EnuMan_t_, ptr %40, i32 0, i32 6
  store i32 %39, ptr %41, align 8, !tbaa !52
  store i32 0, ptr %10, align 4, !tbaa !8
  br label %42

42:                                               ; preds = %56, %21
  %43 = load i32, ptr %10, align 4, !tbaa !8
  %44 = load i32, ptr %4, align 4, !tbaa !8
  %45 = icmp slt i32 %43, %44
  br i1 %45, label %46, label %59

46:                                               ; preds = %42
  %47 = load i32, ptr %10, align 4, !tbaa !8
  %48 = sext i32 %47 to i64
  %49 = getelementptr inbounds [6 x i64], ptr @s_Truths6, i64 0, i64 %48
  %50 = load i64, ptr %49, align 8, !tbaa !30
  %51 = load ptr, ptr %9, align 8, !tbaa !44
  %52 = getelementptr inbounds nuw %struct.Abc_EnuMan_t_, ptr %51, i32 0, i32 14
  %53 = load i32, ptr %10, align 4, !tbaa !8
  %54 = sext i32 %53 to i64
  %55 = getelementptr inbounds [16 x i64], ptr %52, i64 0, i64 %54
  store i64 %50, ptr %55, align 8, !tbaa !30
  br label %56

56:                                               ; preds = %46
  %57 = load i32, ptr %10, align 4, !tbaa !8
  %58 = add nsw i32 %57, 1
  store i32 %58, ptr %10, align 4, !tbaa !8
  br label %42, !llvm.loop !65

59:                                               ; preds = %42
  %60 = load ptr, ptr %9, align 8, !tbaa !44
  call void @Abc_EnumerateFuncs_rec(ptr noundef %60, i32 noundef 1, i32 noundef 0)
  %61 = load i32, ptr %4, align 4, !tbaa !8
  %62 = load i32, ptr %5, align 4, !tbaa !8
  %63 = load ptr, ptr %9, align 8, !tbaa !44
  %64 = getelementptr inbounds nuw %struct.Abc_EnuMan_t_, ptr %63, i32 0, i32 15
  %65 = load i64, ptr %64, align 8, !tbaa !53
  %66 = trunc i64 %65 to i32
  %67 = load ptr, ptr %9, align 8, !tbaa !44
  %68 = getelementptr inbounds nuw %struct.Abc_EnuMan_t_, ptr %67, i32 0, i32 16
  %69 = load i64, ptr %68, align 8, !tbaa !54
  %70 = trunc i64 %69 to i32
  %71 = load ptr, ptr %9, align 8, !tbaa !44
  %72 = getelementptr inbounds nuw %struct.Abc_EnuMan_t_, ptr %71, i32 0, i32 17
  %73 = load i64, ptr %72, align 8, !tbaa !50
  %74 = trunc i64 %73 to i32
  %75 = call i32 (ptr, ...) @printf(ptr noundef @.str.98, i32 noundef %61, i32 noundef %62, i32 noundef %66, i32 noundef %70, i32 noundef %74)
  %76 = call i64 @Abc_Clock()
  %77 = load i64, ptr %7, align 8, !tbaa !30
  %78 = sub nsw i64 %76, %77
  call void @Abc_PrintTime(i32 noundef 1, ptr noundef @.str.96, i64 noundef %78)
  store i32 0, ptr %11, align 4
  br label %79

79:                                               ; preds = %59, %17
  call void @llvm.lifetime.end.p0(i64 4, ptr %10) #12
  call void @llvm.lifetime.end.p0(i64 8, ptr %9) #12
  call void @llvm.lifetime.end.p0(i64 632, ptr %8) #12
  call void @llvm.lifetime.end.p0(i64 8, ptr %7) #12
  %80 = load i32, ptr %11, align 4
  switch i32 %80, label %82 [
    i32 0, label %81
    i32 1, label %81
  ]

81:                                               ; preds = %79, %79
  ret void

82:                                               ; preds = %79
  unreachable
}