; Function Attrs: nounwind uwtable
define void @Abc_EnumerateFuncs(i32 noundef %0, i32 noundef %1, i32 noundef %2) local_unnamed_addr #5 {
  %4 = alloca %struct.timespec, align 8
  %5 = alloca %struct.timespec, align 8
  %6 = alloca %struct.Abc_EnuMan_t_, align 8
  call void @llvm.lifetime.start.p0(i64 16, ptr nonnull %5) #18
  %7 = call i32 @clock_gettime(i32 noundef 1, ptr noundef nonnull %5) #18
  %8 = icmp slt i32 %7, 0
  br i1 %8, label %Abc_Clock.exit, label %9

9:                                                ; preds = %3
  %10 = load i64, ptr %5, align 8, !tbaa !27
  %.neg32 = mul i64 %10, -1000000
  %11 = getelementptr inbounds nuw i8, ptr %5, i64 8
  %12 = load i64, ptr %11, align 8, !tbaa !30
  %.neg = sdiv i64 %12, -1000
  %.neg33 = add i64 %.neg, %.neg32
  br label %Abc_Clock.exit

Abc_Clock.exit:                                   ; preds = %3, %9
  %.0.i.neg = phi i64 [ %.neg33, %9 ], [ 1, %3 ]
  call void @llvm.lifetime.end.p0(i64 16, ptr nonnull %5) #18
  call void @llvm.lifetime.start.p0(i64 632, ptr nonnull %6) #18
  %13 = add nsw i32 %1, 1
  %14 = icmp sgt i32 %0, %13
  br i1 %14, label %15, label %17

15:                                               ; preds = %Abc_Clock.exit
  %16 = call i32 (ptr, ...) @printf(ptr noundef nonnull dereferenceable(1) @.str.97, i32 noundef %1, i32 noundef %0)
  br label %49

17:                                               ; preds = %Abc_Clock.exit
  call void @llvm.memset.p0.i64(ptr noundef nonnull align 8 dereferenceable(632) %6, i8 0, i64 632, i1 false)
  %18 = getelementptr inbounds nuw i8, ptr %6, i64 8
  store i32 %2, ptr %18, align 8, !tbaa !46
  store i32 %0, ptr %6, align 8, !tbaa !47
  %19 = add nsw i32 %1, %0
  %20 = getelementptr inbounds nuw i8, ptr %6, i64 16
  store i32 %19, ptr %20, align 8, !tbaa !45
  %21 = getelementptr inbounds nuw i8, ptr %6, i64 20
  store i32 %0, ptr %21, align 4, !tbaa !43
  %22 = getelementptr inbounds nuw i8, ptr %6, i64 24
  store i32 %0, ptr %22, align 8, !tbaa !51
  %23 = icmp sgt i32 %0, 0
  br i1 %23, label %.lr.ph, label %._crit_edge

.lr.ph:                                           ; preds = %17
  %24 = getelementptr inbounds nuw i8, ptr %6, i64 480
  %25 = zext nneg i32 %0 to i64
  %26 = shl nuw nsw i64 %25, 3
  call void @llvm.memcpy.p0.p0.i64(ptr nonnull align 8 %24, ptr nonnull align 16 @s_Truths6, i64 %26, i1 false), !tbaa !33
  br label %._crit_edge

._crit_edge:                                      ; preds = %.lr.ph, %17
  call void @Abc_EnumerateFuncs_rec(ptr noundef nonnull %6, i32 noundef 1, i32 noundef 0)
  %27 = getelementptr inbounds nuw i8, ptr %6, i64 608
  %28 = load i64, ptr %27, align 8, !tbaa !52
  %29 = trunc i64 %28 to i32
  %30 = getelementptr inbounds nuw i8, ptr %6, i64 616
  %31 = load i64, ptr %30, align 8, !tbaa !56
  %32 = trunc i64 %31 to i32
  %33 = getelementptr inbounds nuw i8, ptr %6, i64 624
  %34 = load i64, ptr %33, align 8, !tbaa !49
  %35 = trunc i64 %34 to i32
  %36 = call i32 (ptr, ...) @printf(ptr noundef nonnull dereferenceable(1) @.str.98, i32 noundef %0, i32 noundef %1, i32 noundef %29, i32 noundef %32, i32 noundef %35)
  call void @llvm.lifetime.start.p0(i64 16, ptr nonnull %4) #18
  %37 = call i32 @clock_gettime(i32 noundef 1, ptr noundef nonnull %4) #18
  %38 = icmp slt i32 %37, 0
  br i1 %38, label %Abc_Clock.exit31, label %39

39:                                               ; preds = %._crit_edge
  %40 = load i64, ptr %4, align 8, !tbaa !27
  %41 = mul nsw i64 %40, 1000000
  %42 = getelementptr inbounds nuw i8, ptr %4, i64 8
  %43 = load i64, ptr %42, align 8, !tbaa !30
  %44 = sdiv i64 %43, 1000
  %45 = add nsw i64 %44, %41
  br label %Abc_Clock.exit31

Abc_Clock.exit31:                                 ; preds = %._crit_edge, %39
  %.0.i30 = phi i64 [ %45, %39 ], [ -1, %._crit_edge ]
  call void @llvm.lifetime.end.p0(i64 16, ptr nonnull %4) #18
  %46 = add i64 %.0.i30, %.0.i.neg
  call void (i32, ptr, ...) @Abc_Print(i32 poison, ptr noundef nonnull @.str.99, ptr noundef nonnull @.str.96)
  %47 = sitofp i64 %46 to double
  %48 = fdiv double %47, 1.000000e+06
  call void (i32, ptr, ...) @Abc_Print(i32 poison, ptr noundef nonnull @.str.100, double noundef %48)
  br label %49

49:                                               ; preds = %Abc_Clock.exit31, %15
  call void @llvm.lifetime.end.p0(i64 632, ptr nonnull %6) #18
  ret void
}